; Function Attrs: mustprogress nounwind uwtable
define internal fastcc void @_ZN4llvm15SmallVectorImplIZL22costAndCollectOperandsINS_14SCEVAddRecExprEENS_15InstructionCostERKNS_11SCEVOperandERKNS_19TargetTransformInfoENS7_14TargetCostKindERNS0_IS4_EEE16OperationIndicesE12emplace_backIJRjSG_SG_EEERSD_DpOT_(ptr noundef nonnull align 8 dereferenceable(16) %0, i32 %.0.val, i32 %.0.val1, i32 %.0.val3) unnamed_addr #0 align 2 {
  %2 = alloca %struct.OperationIndices.477, align 8
  %3 = tail call noundef i64 @_ZNK4llvm15SmallVectorBaseIjE4sizeEv(ptr noundef nonnull align 8 dereferenceable(16) %0) #18
  %4 = tail call noundef i64 @_ZNK4llvm15SmallVectorBaseIjE8capacityEv(ptr noundef nonnull align 8 dereferenceable(16) %0) #18
  %.not = icmp ult i64 %3, %4
  br i1 %.not, label %11, label %5

5:                                                ; preds = %1
  call void @llvm.lifetime.start.p0(i64 24, ptr nonnull %2)
  %6 = zext i32 %.0.val1 to i64
  %7 = zext i32 %.0.val3 to i64
  store i32 %.0.val, ptr %2, align 8
  %8 = getelementptr inbounds nuw i8, ptr %2, i64 8
  store i64 %6, ptr %8, align 8
  %9 = getelementptr inbounds nuw i8, ptr %2, i64 16
  store i64 %7, ptr %9, align 8
  call fastcc void @_ZN4llvm23SmallVectorTemplateBaseIZL22costAndCollectOperandsINS_14SCEVAddRecExprEENS_15InstructionCostERKNS_11SCEVOperandERKNS_19TargetTransformInfoENS7_14TargetCostKindERNS_15SmallVectorImplIS4_EEE16OperationIndicesLb1EE9push_backERKSE_(ptr noundef nonnull align 8 dereferenceable(16) %0, ptr noundef nonnull align 8 dereferenceable(24) %2)
  %10 = call noundef i64 @_ZNK4llvm15SmallVectorBaseIjE4sizeEv(ptr noundef nonnull align 8 dereferenceable(16) %0) #18
  call void @llvm.lifetime.end.p0(i64 24, ptr nonnull %2)
  br label %21

11:                                               ; preds = %1
  %.val.i = load ptr, ptr %0, align 8
  %12 = tail call noundef i64 @_ZNK4llvm15SmallVectorBaseIjE4sizeEv(ptr noundef nonnull align 8 dereferenceable(16) %0) #18
  %13 = getelementptr inbounds %struct.OperationIndices.477, ptr %.val.i, i64 %12
  %14 = zext i32 %.0.val1 to i64
  %15 = zext i32 %.0.val3 to i64
  store i32 %.0.val, ptr %13, align 8
  %16 = getelementptr inbounds nuw i8, ptr %13, i64 8
  store i64 %14, ptr %16, align 8
  %17 = getelementptr inbounds nuw i8, ptr %13, i64 16
  store i64 %15, ptr %17, align 8
  %18 = tail call noundef i64 @_ZNK4llvm15SmallVectorBaseIjE4sizeEv(ptr noundef nonnull align 8 dereferenceable(16) %0) #18
  %19 = add i64 %18, 1
  tail call void @_ZN4llvm15SmallVectorBaseIjE8set_sizeEm(ptr noundef nonnull align 8 dereferenceable(16) %0, i64 noundef %19) #18
  %20 = tail call noundef i64 @_ZNK4llvm15SmallVectorBaseIjE4sizeEv(ptr noundef nonnull align 8 dereferenceable(16) %0) #18
  br label %21

21:                                               ; preds = %11, %5
  ret void
}